target datalayout = "e-m:e-p270:32:32-p271:32:32-p272:64:64-i64:64-i128:128-f80:128-n8:16:32:64-S128"
target triple = "x86_64-pc-linux-gnu"

%class.anon = type { ptr }
%"struct.boost::detail::thread_exit_function" = type { %"struct.boost::detail::thread_exit_function_base", %class.anon }
%"struct.boost::detail::thread_exit_function_base" = type { ptr }

; Function Attrs: inlinehint mustprogress nounwind uwtable
define internal void @"_ZZN5boost3log11v2_mt_posix7sources3aux18get_severity_levelEvENK3$_0clEv"(ptr noundef nonnull align 8 dereferenceable(8) %0) #13 align 2 {
  %2 = alloca ptr, align 8
  store ptr %0, ptr %2, align 8, !tbaa !3
  %3 = load ptr, ptr %2, align 8
  %4 = getelementptr inbounds nuw %class.anon, ptr %3, i32 0, i32 0
  %5 = load ptr, ptr %4, align 8, !tbaa !9
  %6 = icmp eq ptr %5, null
  br i1 %6, label %8, label %7

7:                                                ; preds = %1
  call void @_ZdlPvm(ptr noundef %5, i64 noundef 8) #17
  br label %8

8:                                                ; preds = %7, %1
  ret void
}

; Function Attrs: mustprogress uwtable
define internal void @"_ZN5boost6detail20thread_exit_functionIZNS_3log11v2_mt_posix7sources3aux18get_severity_levelEvE3$_0EclEv"(ptr noundef nonnull align 8 dereferenceable(16) %0) unnamed_addr #2 align 2 {
  %2 = alloca ptr, align 8
  store ptr %0, ptr %2, align 8, !tbaa !3
  %3 = load ptr, ptr %2, align 8
  %4 = getelementptr inbounds nuw %"struct.boost::detail::thread_exit_function", ptr %3, i32 0, i32 1
  call void @"_ZZN5boost3log11v2_mt_posix7sources3aux18get_severity_levelEvENK3$_0clEv"(ptr noundef nonnull align 8 dereferenceable(8) %4)
  ret void
}