; Function Attrs: mustprogress nounwind uwtable
define internal void @"_ZN5boost6detail20thread_exit_functionIZNS_3log11v2_mt_posix7sources3aux18get_severity_levelEvE3$_0EclEv"(ptr nocapture noundef nonnull readonly align 8 dereferenceable(16) %0) unnamed_addr #7 align 2 {
  %2 = getelementptr inbounds nuw i8, ptr %0, i64 8
  %.val = load ptr, ptr %2, align 8, !tbaa !22
  %3 = icmp eq ptr %.val, null
  br i1 %3, label %"_ZZN5boost3log11v2_mt_posix7sources3aux18get_severity_levelEvENK3$_0clEv.exit", label %4

4:                                                ; preds = %1
  tail call void @_ZdlPvm(ptr noundef nonnull %.val, i64 noundef 8) #10
  br label %"_ZZN5boost3log11v2_mt_posix7sources3aux18get_severity_levelEvENK3$_0clEv.exit"

"_ZZN5boost3log11v2_mt_posix7sources3aux18get_severity_levelEvENK3$_0clEv.exit": ; preds = %1, %4
  ret void
}